target datalayout = "e-m:e-p270:32:32-p271:32:32-p272:64:64-i64:64-i128:128-f80:128-n8:16:32:64-S128"
target triple = "x86_64-pc-linux-gnu"

%struct.tlsextctx_st = type { ptr, ptr, i32 }

@ctx2 = internal global ptr null, align 8
@.str.489 = private unnamed_addr constant [29 x i8] c"Hostname in TLS extension: \22\00", align 1
@.str.490 = private unnamed_addr constant [3 x i8] c"%c\00", align 1
@.str.491 = private unnamed_addr constant [7 x i8] c"\\x%02x\00", align 1
@.str.492 = private unnamed_addr constant [3 x i8] c"\22\0A\00", align 1
@.str.493 = private unnamed_addr constant [27 x i8] c"Switching server context.\0A\00", align 1

; Function Attrs: nounwind uwtable
define internal i32 @ssl_servername_cb(ptr noundef %0, ptr noundef %1, ptr noundef %2) #0 {
  %4 = alloca i32, align 4
  %5 = alloca ptr, align 8
  %6 = alloca ptr, align 8
  %7 = alloca ptr, align 8
  %8 = alloca ptr, align 8
  %9 = alloca ptr, align 8
  %10 = alloca ptr, align 8
  %11 = alloca i8, align 1
  %12 = alloca i32, align 4
  store ptr %0, ptr %5, align 8, !tbaa !73
  store ptr %1, ptr %6, align 8, !tbaa !75
  store ptr %2, ptr %7, align 8, !tbaa !69
  call void @llvm.lifetime.start.p0(i64 8, ptr %8) #10
  %13 = load ptr, ptr %7, align 8, !tbaa !69
  store ptr %13, ptr %8, align 8, !tbaa !89
  call void @llvm.lifetime.start.p0(i64 8, ptr %9) #10
  %14 = load ptr, ptr %5, align 8, !tbaa !73
  %15 = call ptr @SSL_get_servername(ptr noundef %14, i32 noundef 0)
  store ptr %15, ptr %9, align 8, !tbaa !31
  %16 = load ptr, ptr %9, align 8, !tbaa !31
  %17 = icmp ne ptr %16, null
  br i1 %17, label %18, label %65

18:                                               ; preds = %3
  %19 = load ptr, ptr %8, align 8, !tbaa !89
  %20 = getelementptr inbounds nuw %struct.tlsextctx_st, ptr %19, i32 0, i32 1
  %21 = load ptr, ptr %20, align 8, !tbaa !68
  %22 = icmp ne ptr %21, null
  br i1 %22, label %23, label %65

23:                                               ; preds = %18
  call void @llvm.lifetime.start.p0(i64 8, ptr %10) #10
  %24 = load ptr, ptr %9, align 8, !tbaa !31
  store ptr %24, ptr %10, align 8, !tbaa !31
  call void @llvm.lifetime.start.p0(i64 1, ptr %11) #10
  %25 = load ptr, ptr %8, align 8, !tbaa !89
  %26 = getelementptr inbounds nuw %struct.tlsextctx_st, ptr %25, i32 0, i32 1
  %27 = load ptr, ptr %26, align 8, !tbaa !68
  %28 = call i32 (ptr, ptr, ...) @BIO_printf(ptr noundef %27, ptr noundef @.str.489)
  br label %29

29:                                               ; preds = %54, %23
  %30 = load ptr, ptr %10, align 8, !tbaa !31
  %31 = getelementptr inbounds nuw i8, ptr %30, i32 1
  store ptr %31, ptr %10, align 8, !tbaa !31
  %32 = load i8, ptr %30, align 1, !tbaa !47
  store i8 %32, ptr %11, align 1, !tbaa !47
  %33 = zext i8 %32 to i32
  %34 = icmp ne i32 %33, 0
  br i1 %34, label %35, label %60

35:                                               ; preds = %29
  %36 = load ptr, ptr %8, align 8, !tbaa !89
  %37 = getelementptr inbounds nuw %struct.tlsextctx_st, ptr %36, i32 0, i32 1
  %38 = load ptr, ptr %37, align 8, !tbaa !68
  %39 = load i8, ptr %11, align 1, !tbaa !47
  %40 = zext i8 %39 to i32
  %41 = and i32 %40, -128
  %42 = icmp eq i32 %41, 0
  br i1 %42, label %43, label %54

43:                                               ; preds = %35
  %44 = call ptr @__ctype_b_loc() #12
  %45 = load ptr, ptr %44, align 8, !tbaa !48
  %46 = load i8, ptr %11, align 1, !tbaa !47
  %47 = zext i8 %46 to i32
  %48 = sext i32 %47 to i64
  %49 = getelementptr inbounds i16, ptr %45, i64 %48
  %50 = load i16, ptr %49, align 2, !tbaa !50
  %51 = zext i16 %50 to i32
  %52 = and i32 %51, 16384
  %53 = icmp ne i32 %52, 0
  br label %54

54:                                               ; preds = %43, %35
  %55 = phi i1 [ false, %35 ], [ %53, %43 ]
  %56 = select i1 %55, ptr @.str.490, ptr @.str.491
  %57 = load i8, ptr %11, align 1, !tbaa !47
  %58 = zext i8 %57 to i32
  %59 = call i32 (ptr, ptr, ...) @BIO_printf(ptr noundef %38, ptr noundef %56, i32 noundef %58)
  br label %29, !llvm.loop !91

60:                                               ; preds = %29
  %61 = load ptr, ptr %8, align 8, !tbaa !89
  %62 = getelementptr inbounds nuw %struct.tlsextctx_st, ptr %61, i32 0, i32 1
  %63 = load ptr, ptr %62, align 8, !tbaa !68
  %64 = call i32 (ptr, ptr, ...) @BIO_printf(ptr noundef %63, ptr noundef @.str.492)
  call void @llvm.lifetime.end.p0(i64 1, ptr %11) #10
  call void @llvm.lifetime.end.p0(i64 8, ptr %10) #10
  br label %65

65:                                               ; preds = %60, %18, %3
  %66 = load ptr, ptr %8, align 8, !tbaa !89
  %67 = getelementptr inbounds nuw %struct.tlsextctx_st, ptr %66, i32 0, i32 0
  %68 = load ptr, ptr %67, align 8, !tbaa !56
  %69 = icmp eq ptr %68, null
  br i1 %69, label %70, label %71

70:                                               ; preds = %65
  store i32 3, ptr %4, align 4
  store i32 1, ptr %12, align 4
  br label %98

71:                                               ; preds = %65
  %72 = load ptr, ptr %9, align 8, !tbaa !31
  %73 = icmp ne ptr %72, null
  br i1 %73, label %74, label %97

74:                                               ; preds = %71
  %75 = load ptr, ptr %9, align 8, !tbaa !31
  %76 = load ptr, ptr %8, align 8, !tbaa !89
  %77 = getelementptr inbounds nuw %struct.tlsextctx_st, ptr %76, i32 0, i32 0
  %78 = load ptr, ptr %77, align 8, !tbaa !56
  %79 = call i32 @OPENSSL_strcasecmp(ptr noundef %75, ptr noundef %78)
  %80 = icmp ne i32 %79, 0
  br i1 %80, label %81, label %85

81:                                               ; preds = %74
  %82 = load ptr, ptr %8, align 8, !tbaa !89
  %83 = getelementptr inbounds nuw %struct.tlsextctx_st, ptr %82, i32 0, i32 2
  %84 = load i32, ptr %83, align 8, !tbaa !58
  store i32 %84, ptr %4, align 4
  store i32 1, ptr %12, align 4
  br label %98

85:                                               ; preds = %74
  %86 = load ptr, ptr @ctx2, align 8, !tbaa !33
  %87 = icmp ne ptr %86, null
  br i1 %87, label %88, label %96

88:                                               ; preds = %85
  %89 = load ptr, ptr %8, align 8, !tbaa !89
  %90 = getelementptr inbounds nuw %struct.tlsextctx_st, ptr %89, i32 0, i32 1
  %91 = load ptr, ptr %90, align 8, !tbaa !68
  %92 = call i32 (ptr, ptr, ...) @BIO_printf(ptr noundef %91, ptr noundef @.str.493)
  %93 = load ptr, ptr %5, align 8, !tbaa !73
  %94 = load ptr, ptr @ctx2, align 8, !tbaa !33
  %95 = call ptr @SSL_set_SSL_CTX(ptr noundef %93, ptr noundef %94)
  br label %96

96:                                               ; preds = %88, %85
  br label %97

97:                                               ; preds = %96, %71
  store i32 0, ptr %4, align 4
  store i32 1, ptr %12, align 4
  br label %98

98:                                               ; preds = %97, %81, %70
  call void @llvm.lifetime.end.p0(i64 8, ptr %9) #10
  call void @llvm.lifetime.end.p0(i64 8, ptr %8) #10
  %99 = load i32, ptr %4, align 4
  ret i32 %99
}