; Function Attrs: nounwind uwtable
define internal i32 @ssl_servername_cb(ptr noundef %0, ptr readnone captures(none) %1, ptr noundef readonly captures(none) %2) #0 {
  %4 = tail call ptr @SSL_get_servername(ptr noundef %0, i32 noundef 0) #14
  %.not = icmp eq ptr %4, null
  br i1 %.not, label %.thread, label %7

.thread:                                          ; preds = %3
  %5 = load ptr, ptr %2, align 8, !tbaa !40
  %6 = icmp eq ptr %5, null
  %.mux30 = select i1 %6, i32 3, i32 0
  br label %47

7:                                                ; preds = %3
  %8 = getelementptr inbounds nuw i8, ptr %2, i64 8
  %9 = load ptr, ptr %8, align 8, !tbaa !50
  %.not24 = icmp eq ptr %9, null
  br i1 %.not24, label %32, label %10

10:                                               ; preds = %7
  %11 = tail call i32 (ptr, ptr, ...) @BIO_printf(ptr noundef nonnull %9, ptr noundef nonnull @.str.489) #14
  %12 = load i8, ptr %4, align 1, !tbaa !31
  %.not2531 = icmp eq i8 %12, 0
  br i1 %.not2531, label %._crit_edge, label %.lr.ph

.lr.ph:                                           ; preds = %10, %26
  %13 = phi i8 [ %29, %26 ], [ %12, %10 ]
  %.pn = phi ptr [ %14, %26 ], [ %4, %10 ]
  %14 = getelementptr inbounds nuw i8, ptr %.pn, i64 1
  %15 = zext i8 %13 to i32
  %16 = load ptr, ptr %8, align 8, !tbaa !50
  %17 = icmp sgt i8 %13, -1
  br i1 %17, label %18, label %26

18:                                               ; preds = %.lr.ph
  %19 = tail call ptr @__ctype_b_loc() #15
  %20 = load ptr, ptr %19, align 8, !tbaa !32
  %21 = zext nneg i8 %13 to i64
  %22 = getelementptr inbounds nuw i16, ptr %20, i64 %21
  %23 = load i16, ptr %22, align 2, !tbaa !36
  %24 = and i16 %23, 16384
  %.not28 = icmp eq i16 %24, 0
  %25 = select i1 %.not28, ptr @.str.491, ptr @.str.490
  br label %26

26:                                               ; preds = %18, %.lr.ph
  %27 = phi ptr [ @.str.491, %.lr.ph ], [ %25, %18 ]
  %28 = tail call i32 (ptr, ptr, ...) @BIO_printf(ptr noundef %16, ptr noundef nonnull %27, i32 noundef %15) #14
  %29 = load i8, ptr %14, align 1, !tbaa !31
  %.not25 = icmp eq i8 %29, 0
  br i1 %.not25, label %._crit_edge, label %.lr.ph, !llvm.loop !65

._crit_edge:                                      ; preds = %26, %10
  %30 = load ptr, ptr %8, align 8, !tbaa !50
  %31 = tail call i32 (ptr, ptr, ...) @BIO_printf(ptr noundef %30, ptr noundef nonnull @.str.492) #14
  br label %32

32:                                               ; preds = %._crit_edge, %7
  %33 = load ptr, ptr %2, align 8, !tbaa !40
  %34 = icmp eq ptr %33, null
  br i1 %34, label %47, label %35

35:                                               ; preds = %32
  %36 = tail call i32 @OPENSSL_strcasecmp(ptr noundef nonnull %4, ptr noundef nonnull %33) #14
  %.not26 = icmp eq i32 %36, 0
  br i1 %.not26, label %40, label %37

37:                                               ; preds = %35
  %38 = getelementptr inbounds nuw i8, ptr %2, i64 16
  %39 = load i32, ptr %38, align 8, !tbaa !42
  br label %47

40:                                               ; preds = %35
  %41 = load ptr, ptr @ctx2, align 8, !tbaa !17
  %.not27 = icmp eq ptr %41, null
  br i1 %.not27, label %47, label %42

42:                                               ; preds = %40
  %43 = load ptr, ptr %8, align 8, !tbaa !50
  %44 = tail call i32 (ptr, ptr, ...) @BIO_printf(ptr noundef %43, ptr noundef nonnull @.str.493) #14
  %45 = load ptr, ptr @ctx2, align 8, !tbaa !17
  %46 = tail call ptr @SSL_set_SSL_CTX(ptr noundef %0, ptr noundef %45) #14
  br label %47

47:                                               ; preds = %.thread, %32, %42, %40, %37
  %.0 = phi i32 [ %39, %37 ], [ 3, %32 ], [ 0, %40 ], [ 0, %42 ], [ %.mux30, %.thread ]
  ret i32 %.0
}